target datalayout = "e-m:e-p270:32:32-p271:32:32-p272:64:64-i64:64-i128:128-f80:128-n8:16:32:64-S128"
target triple = "x86_64-unknown-linux-gnu"

%class.rewriter_core = type { ptr, ptr, i8, i8, %class.ptr_vector, ptr, %class.svector.1, %class.ref_vector, %class.ptr_vector, ptr, %class.ref_vector.5, %class.obj_hashtable, ptr, i32, %class.svector.10 }
%class.svector.1 = type { %class.vector.2 }
%class.vector.2 = type { ptr }
%class.ref_vector = type { %class.ref_vector_core }
%class.ref_vector_core = type { %class.ref_manager_wrapper, %class.ptr_vector.3 }
%class.ref_manager_wrapper = type { ptr }
%class.ptr_vector.3 = type { %class.vector.4 }
%class.vector.4 = type { ptr }
%class.ptr_vector = type { %class.vector.0 }
%class.vector.0 = type { ptr }
%class.ref_vector.5 = type { %class.ref_vector_core.6 }
%class.ref_vector_core.6 = type { %class.ref_manager_wrapper.7, %class.ptr_vector.8 }
%class.ref_manager_wrapper.7 = type { ptr }
%class.ptr_vector.8 = type { %class.vector.9 }
%class.vector.9 = type { ptr }
%class.obj_hashtable = type { %class.core_hashtable.base, [4 x i8] }
%class.core_hashtable.base = type <{ ptr, i32, i32, i32 }>
%class.svector.10 = type { %class.vector.11 }
%class.vector.11 = type { ptr }
%class.ast_manager = type { %class.reslimit, %class.small_object_allocator, %class.family_manager, %class.parray_manager, %class.dependency_manager, %class.parray_manager.27, %class.ptr_vector.30, i32, i8, %class.ast_table, %class.obj_map, %class.id_gen, %class.id_gen, ptr, ptr, ptr, ptr, ptr, i32, i8, [3 x i8], %class.u_map, ptr, i8, i8, ptr, %class.symbol, %class.obj_map.41, ptr }
%class.reslimit = type { %"struct.std::atomic", i8, i64, i64, %class.svector.12, %class.ptr_vector.14 }
%"struct.std::atomic" = type { %"struct.std::__atomic_base" }
%"struct.std::__atomic_base" = type { i32 }
%class.svector.12 = type { %class.vector.13 }
%class.vector.13 = type { ptr }
%class.ptr_vector.14 = type { %class.vector.15 }
%class.vector.15 = type { ptr }
%class.small_object_allocator = type { [32 x ptr], [32 x ptr], i64 }
%class.family_manager = type { i32, %class.symbol_table, %class.svector.21 }
%class.symbol_table = type { %class.core_hashtable.16, %class.vector.18, %class.svector.19 }
%class.core_hashtable.16 = type <{ ptr, i32, i32, i32, [4 x i8] }>
%class.vector.18 = type { ptr }
%class.svector.19 = type { %class.vector.20 }
%class.vector.20 = type { ptr }
%class.svector.21 = type { %class.vector.22 }
%class.vector.22 = type { ptr }
%class.parray_manager = type { ptr, ptr, %class.ptr_vector.23, %class.ptr_vector.23 }
%class.ptr_vector.23 = type { %class.vector.24 }
%class.vector.24 = type { ptr }
%class.dependency_manager = type { ptr, ptr, %class.ptr_vector.25 }
%class.ptr_vector.25 = type { %class.vector.26 }
%class.vector.26 = type { ptr }
%class.parray_manager.27 = type { ptr, ptr, %class.ptr_vector.28, %class.ptr_vector.28 }
%class.ptr_vector.28 = type { %class.vector.29 }
%class.vector.29 = type { ptr }
%class.ptr_vector.30 = type { %class.vector.31 }
%class.vector.31 = type { ptr }
%class.ast_table = type { %class.chashtable.32 }
%class.chashtable.32 = type { ptr, i32, i32, i32, i32, i32, i32, i32, ptr, ptr, ptr }
%class.obj_map = type { %class.core_hashtable.34 }
%class.core_hashtable.34 = type <{ ptr, i32, i32, i32, [4 x i8] }>
%class.id_gen = type { i32, %class.svector.37 }
%class.svector.37 = type { %class.vector.38 }
%class.vector.38 = type { ptr }
%class.u_map = type { %class.map }
%class.map = type { %class.table2map }
%class.table2map = type { %class.core_hashtable.39 }
%class.core_hashtable.39 = type <{ ptr, i32, i32, i32, [4 x i8] }>
%class.symbol = type { ptr }
%class.obj_map.41 = type { %class.core_hashtable.42 }
%class.core_hashtable.42 = type <{ ptr, i32, i32, i32, [4 x i8] }>
%class.app = type { %class.expr, ptr, i32, [0 x ptr] }
%class.expr = type { %class.ast }
%class.ast = type { i32, i24, i32, i32 }

; Function Attrs: mustprogress nounwind uwtable
define linkonce_odr hidden noundef i32 @_ZNK3app12get_num_argsEv(ptr noundef nonnull align 8 dereferenceable(32) %this) #5 comdat align 2 {
entry:
  %this.addr = alloca ptr, align 8
  store ptr %this, ptr %this.addr, align 8
  %this1 = load ptr, ptr %this.addr, align 8
  %m_num_args = getelementptr inbounds %class.app, ptr %this1, i32 0, i32 2
  %0 = load i32, ptr %m_num_args, align 8
  ret i32 %0
}

; Function Attrs: mustprogress nounwind uwtable
define linkonce_odr hidden noundef ptr @_ZNK3app7get_argEj(ptr noundef nonnull align 8 dereferenceable(32) %this, i32 noundef %idx) #5 comdat align 2 {
entry:
  %this.addr = alloca ptr, align 8
  %idx.addr = alloca i32, align 4
  store ptr %this, ptr %this.addr, align 8
  store i32 %idx, ptr %idx.addr, align 4
  %this1 = load ptr, ptr %this.addr, align 8
  %m_args = getelementptr inbounds %class.app, ptr %this1, i32 0, i32 3
  %0 = load i32, ptr %idx.addr, align 4
  %idxprom = zext i32 %0 to i64
  %arrayidx = getelementptr inbounds [0 x ptr], ptr %m_args, i64 0, i64 %idxprom
  %1 = load ptr, ptr %arrayidx, align 8
  ret ptr %1
}

; Function Attrs: mustprogress nounwind uwtable
define linkonce_odr hidden noundef ptr @_Z6to_appP3ast(ptr noundef %n) #5 comdat {
entry:
  %n.addr = alloca ptr, align 8
  store ptr %n, ptr %n.addr, align 8
  %0 = load ptr, ptr %n.addr, align 8
  ret ptr %0
}

; Function Attrs: mustprogress uwtable
define linkonce_odr hidden noundef ptr @_ZNK11ast_manager8get_factEPK3app(ptr noundef nonnull align 8 dereferenceable(976) %this, ptr noundef %p) #4 comdat align 2 {
entry:
  %this.addr = alloca ptr, align 8
  %p.addr = alloca ptr, align 8
  store ptr %this, ptr %this.addr, align 8
  store ptr %p, ptr %p.addr, align 8
  %0 = load ptr, ptr %p.addr, align 8
  %1 = load ptr, ptr %p.addr, align 8
  %call = call noundef i32 @_ZNK3app12get_num_argsEv(ptr noundef nonnull align 8 dereferenceable(32) %1)
  %sub = sub i32 %call, 1
  %call2 = call noundef ptr @_ZNK3app7get_argEj(ptr noundef nonnull align 8 dereferenceable(32) %0, i32 noundef %sub)
  ret ptr %call2
}

; Function Attrs: mustprogress nounwind uwtable
define linkonce_odr hidden noundef zeroext i1 @_ZNK11ast_manager15proofs_disabledEv(ptr noundef nonnull align 8 dereferenceable(976) %this) #5 comdat align 2 {
entry:
  %this.addr = alloca ptr, align 8
  store ptr %this, ptr %this.addr, align 8
  %this1 = load ptr, ptr %this.addr, align 8
  %m_proof_mode = getelementptr inbounds %class.ast_manager, ptr %this1, i32 0, i32 7
  %0 = load i32, ptr %m_proof_mode, align 8
  %cmp = icmp eq i32 %0, 0
  ret i1 %cmp
}

; Function Attrs: mustprogress nounwind uwtable
define linkonce_odr hidden noundef nonnull align 8 dereferenceable(976) ptr @_ZNK13rewriter_core1mEv(ptr noundef nonnull align 8 dereferenceable(144) %this) #5 comdat align 2 {
entry:
  %this.addr = alloca ptr, align 8
  store ptr %this, ptr %this.addr, align 8
  %this1 = load ptr, ptr %this.addr, align 8
  %m_manager = getelementptr inbounds %class.rewriter_core, ptr %this1, i32 0, i32 1
  %0 = load ptr, ptr %m_manager, align 8
  ret ptr %0
}

; Function Attrs: mustprogress uwtable
define hidden noundef zeroext i1 @_ZN13rewriter_core11rewrites_toEP4exprP3app(ptr noundef nonnull align 8 dereferenceable(144) %this, ptr noundef %t, ptr noundef %p) #4 align 2 {
entry:
  %this.addr = alloca ptr, align 8
  %t.addr = alloca ptr, align 8
  %p.addr = alloca ptr, align 8
  store ptr %this, ptr %this.addr, align 8
  store ptr %t, ptr %t.addr, align 8
  store ptr %p, ptr %p.addr, align 8
  %this1 = load ptr, ptr %this.addr, align 8
  %0 = load ptr, ptr %p.addr, align 8
  %tobool = icmp ne ptr %0, null
  br i1 %tobool, label %lor.lhs.false, label %lor.end

lor.lhs.false:                                    ; preds = %entry
  %call = call noundef nonnull align 8 dereferenceable(976) ptr @_ZNK13rewriter_core1mEv(ptr noundef nonnull align 8 dereferenceable(144) %this1)
  %call2 = call noundef zeroext i1 @_ZNK11ast_manager15proofs_disabledEv(ptr noundef nonnull align 8 dereferenceable(976) %call)
  br i1 %call2, label %lor.end, label %lor.rhs

lor.rhs:                                          ; preds = %lor.lhs.false
  %call3 = call noundef nonnull align 8 dereferenceable(976) ptr @_ZNK13rewriter_core1mEv(ptr noundef nonnull align 8 dereferenceable(144) %this1)
  %1 = load ptr, ptr %p.addr, align 8
  %call4 = call noundef ptr @_ZNK11ast_manager8get_factEPK3app(ptr noundef nonnull align 8 dereferenceable(976) %call3, ptr noundef %1)
  %call5 = call noundef ptr @_Z6to_appP3ast(ptr noundef %call4)
  %call6 = call noundef ptr @_ZNK3app7get_argEj(ptr noundef nonnull align 8 dereferenceable(32) %call5, i32 noundef 1)
  %2 = load ptr, ptr %t.addr, align 8
  %cmp = icmp eq ptr %call6, %2
  br label %lor.end

lor.end:                                          ; preds = %lor.rhs, %lor.lhs.false, %entry
  %3 = phi i1 [ true, %lor.lhs.false ], [ true, %entry ], [ %cmp, %lor.rhs ]
  ret i1 %3
}