; Function Attrs: mustprogress nofree norecurse nosync nounwind willreturn memory(read, inaccessiblemem: none) uwtable
define hidden noundef zeroext i1 @_ZN13rewriter_core11rewrites_toEP4exprP3app(ptr nocapture noundef nonnull readonly align 8 dereferenceable(144) %this, ptr noundef readnone %t, ptr noundef readonly %p) local_unnamed_addr #4 align 2 {
entry:
  %tobool.not = icmp eq ptr %p, null
  br i1 %tobool.not, label %lor.end, label %lor.lhs.false

lor.lhs.false:                                    ; preds = %entry
  %m_manager.i = getelementptr inbounds i8, ptr %this, i64 8
  %0 = load ptr, ptr %m_manager.i, align 8
  %m_proof_mode.i = getelementptr inbounds i8, ptr %0, i64 712
  %1 = load i32, ptr %m_proof_mode.i, align 8
  %cmp.i = icmp eq i32 %1, 0
  br i1 %cmp.i, label %lor.end, label %lor.rhs

lor.rhs:                                          ; preds = %lor.lhs.false
  %m_num_args.i.i = getelementptr inbounds i8, ptr %p, i64 24
  %2 = load i32, ptr %m_num_args.i.i, align 8
  %sub.i = add i32 %2, -1
  %m_args.i.i = getelementptr inbounds i8, ptr %p, i64 32
  %idxprom.i.i = zext i32 %sub.i to i64
  %arrayidx.i.i = getelementptr inbounds [0 x ptr], ptr %m_args.i.i, i64 0, i64 %idxprom.i.i
  %3 = load ptr, ptr %arrayidx.i.i, align 8
  %arrayidx.i = getelementptr inbounds i8, ptr %3, i64 40
  %4 = load ptr, ptr %arrayidx.i, align 8
  %cmp = icmp eq ptr %4, %t
  br label %lor.end

lor.end:                                          ; preds = %lor.rhs, %lor.lhs.false, %entry
  %5 = phi i1 [ true, %lor.lhs.false ], [ true, %entry ], [ %cmp, %lor.rhs ]
  ret i1 %5
}